; Function Attrs: mustprogress nofree nounwind uwtable
define internal void @"_ZNSt17_Function_handlerIFvvEZZ4mainENK3$_1clERN2tf7SubflowEEUlvE_E9_M_invokeERKSt9_Any_data"(ptr nocapture noundef nonnull readonly align 8 dereferenceable(16) %__functor) #25 align 2 {
entry:
  %call.val = load ptr, ptr %__functor, align 8
  %call.val.val = load ptr, ptr %call.val, align 8
  %0 = getelementptr i8, ptr %call.val, i64 8
  %call.val.val1 = load ptr, ptr %0, align 8
  %cmp.i.not4.i.i.i.i = icmp eq ptr %call.val.val, %call.val.val1
  br i1 %cmp.i.not4.i.i.i.i, label %"_ZSt10__invoke_rIvRZZ4mainENK3$_1clERN2tf7SubflowEEUlvE_JEENSt9enable_ifIX16is_invocable_r_vIT_T0_DpT1_EES7_E4typeEOS8_DpOS9_.exit", label %for.body.i.i.i.i

for.body.i.i.i.i:                                 ; preds = %entry, %for.body.i.i.i.i
  %__init.addr.06.i.i.i.i = phi i32 [ %add.i.i.i.i.i, %for.body.i.i.i.i ], [ 0, %entry ]
  %__first.sroa.0.05.i.i.i.i = phi ptr [ %incdec.ptr.i.i.i.i.i, %for.body.i.i.i.i ], [ %call.val.val, %entry ]
  %1 = load i32, ptr %__first.sroa.0.05.i.i.i.i, align 4
  %add.i.i.i.i.i = add nsw i32 %1, %__init.addr.06.i.i.i.i
  %incdec.ptr.i.i.i.i.i = getelementptr inbounds i8, ptr %__first.sroa.0.05.i.i.i.i, i64 4
  %cmp.i.not.i.i.i.i = icmp eq ptr %incdec.ptr.i.i.i.i.i, %call.val.val1
  br i1 %cmp.i.not.i.i.i.i, label %"_ZSt10__invoke_rIvRZZ4mainENK3$_1clERN2tf7SubflowEEUlvE_JEENSt9enable_ifIX16is_invocable_r_vIT_T0_DpT1_EES7_E4typeEOS8_DpOS9_.exit", label %for.body.i.i.i.i, !llvm.loop !295

"_ZSt10__invoke_rIvRZZ4mainENK3$_1clERN2tf7SubflowEEUlvE_JEENSt9enable_ifIX16is_invocable_r_vIT_T0_DpT1_EES7_E4typeEOS8_DpOS9_.exit": ; preds = %for.body.i.i.i.i, %entry
  %__init.addr.0.lcssa.i.i.i.i = phi i32 [ 0, %entry ], [ %add.i.i.i.i.i, %for.body.i.i.i.i ]
  %call9.i.i.i = tail call i32 (ptr, ...) @printf(ptr noundef nonnull dereferenceable(1) @.str.91, i32 noundef %__init.addr.0.lcssa.i.i.i.i)
  ret void
}